; ModuleID = '38/1160.cpp'
source_filename = "38/1160.cpp"
target datalayout = "e-m:e-p270:32:32-p271:32:32-p272:64:64-i64:64-f80:128-n8:16:32:64-S128"
target triple = "x86_64-pc-linux-gnu"

%"class.std::ios_base::Init" = type { i8 }
%"class.std::basic_istream" = type { i32 (...)**, i64, %"class.std::basic_ios" }
%"class.std::basic_ios" = type { %"class.std::ios_base", %"class.std::basic_ostream"*, i8, i8, %"class.std::basic_streambuf"*, %"class.std::ctype"*, %"class.std::num_put"*, %"class.std::num_get"* }
%"class.std::ios_base" = type { i32 (...)**, i64, i64, i32, i32, i32, %"struct.std::ios_base::_Callback_list"*, %"struct.std::ios_base::_Words", [8 x %"struct.std::ios_base::_Words"], i32, %"struct.std::ios_base::_Words"*, %"class.std::locale" }
%"struct.std::ios_base::_Callback_list" = type { %"struct.std::ios_base::_Callback_list"*, void (i32, %"class.std::ios_base"*, i32)*, i32, i32 }
%"struct.std::ios_base::_Words" = type { i8*, i64 }
%"class.std::locale" = type { %"class.std::locale::_Impl"* }
%"class.std::locale::_Impl" = type { i32, %"class.std::locale::facet"**, i64, %"class.std::locale::facet"**, i8** }
%"class.std::locale::facet" = type <{ i32 (...)**, i32, [4 x i8] }>
%"class.std::basic_ostream" = type { i32 (...)**, %"class.std::basic_ios" }
%"class.std::basic_streambuf" = type { i32 (...)**, i8*, i8*, i8*, i8*, i8*, i8*, %"class.std::locale" }
%"class.std::ctype" = type <{ %"class.std::locale::facet.base", [4 x i8], %struct.__locale_struct*, i8, [7 x i8], i32*, i32*, i16*, i8, [256 x i8], [256 x i8], i8, [6 x i8] }>
%"class.std::locale::facet.base" = type <{ i32 (...)**, i32 }>
%struct.__locale_struct = type { [13 x %struct.__locale_data*], i16*, i32*, i32*, [13 x i8*] }
%struct.__locale_data = type opaque
%"class.std::num_put" = type { %"class.std::locale::facet.base", [4 x i8] }
%"class.std::num_get" = type { %"class.std::locale::facet.base", [4 x i8] }

@_ZStL8__ioinit = internal global %"class.std::ios_base::Init" zeroinitializer, align 1
@__dso_handle = external hidden global i8
@_ZSt3cin = external dso_local global %"class.std::basic_istream", align 8
@.str = private unnamed_addr constant [7 x i8] c"%.5lf\0A\00", align 1
@llvm.global_ctors = appending global [1 x { i32, void ()*, i8* }] [{ i32, void ()*, i8* } { i32 65535, void ()* @_GLOBAL__sub_I_1160.cpp, i8* null }]

; Function Attrs: noinline uwtable
define internal void @__cxx_global_var_init() #0 section ".text.startup" {
  call void @_ZNSt8ios_base4InitC1Ev(%"class.std::ios_base::Init"* @_ZStL8__ioinit)
  %1 = call i32 @__cxa_atexit(void (i8*)* bitcast (void (%"class.std::ios_base::Init"*)* @_ZNSt8ios_base4InitD1Ev to void (i8*)*), i8* getelementptr inbounds (%"class.std::ios_base::Init", %"class.std::ios_base::Init"* @_ZStL8__ioinit, i32 0, i32 0), i8* @__dso_handle) #3
  ret void
}

declare dso_local void @_ZNSt8ios_base4InitC1Ev(%"class.std::ios_base::Init"*) unnamed_addr #1

; Function Attrs: nounwind
declare dso_local void @_ZNSt8ios_base4InitD1Ev(%"class.std::ios_base::Init"*) unnamed_addr #2

; Function Attrs: nounwind
declare dso_local i32 @__cxa_atexit(void (i8*)*, i8*, i8*) #3

; Function Attrs: noinline norecurse uwtable
define dso_local i32 @main() #4 {
  %1 = alloca i32, align 4
  %2 = alloca i32, align 4
  %3 = alloca i32, align 4
  %4 = alloca [1000 x double], align 16
  %5 = alloca double, align 8
  %6 = alloca double, align 8
  %7 = alloca double, align 8
  %8 = alloca [1000 x double], align 16
  %9 = alloca i32, align 4
  %10 = alloca i32, align 4
  store i32 0, i32* %1, align 4
  %11 = call dereferenceable(280) %"class.std::basic_istream"* @_ZNSirsERi(%"class.std::basic_istream"* @_ZSt3cin, i32* dereferenceable(4) %2)
  store i32 1, i32* %9, align 4
  br label %12

12:                                               ; preds = %75, %0
  %13 = load i32, i32* %9, align 4
  %14 = load i32, i32* %2, align 4
  %15 = icmp sle i32 %13, %14
  br i1 %15, label %16, label %78

16:                                               ; preds = %12
  %17 = call dereferenceable(280) %"class.std::basic_istream"* @_ZNSirsERi(%"class.std::basic_istream"* @_ZSt3cin, i32* dereferenceable(4) %3)
  store double 0.000000e+00, double* %6, align 8
  store i32 1, i32* %10, align 4
  br label %18

18:                                               ; preds = %33, %16
  %19 = load i32, i32* %10, align 4
  %20 = load i32, i32* %3, align 4
  %21 = icmp sle i32 %19, %20
  br i1 %21, label %22, label %36

22:                                               ; preds = %18
  %23 = load i32, i32* %10, align 4
  %24 = sext i32 %23 to i64
  %25 = getelementptr inbounds [1000 x double], [1000 x double]* %4, i64 0, i64 %24
  %26 = call dereferenceable(280) %"class.std::basic_istream"* @_ZNSirsERd(%"class.std::basic_istream"* @_ZSt3cin, double* dereferenceable(8) %25)
  %27 = load double, double* %6, align 8
  %28 = load i32, i32* %10, align 4
  %29 = sext i32 %28 to i64
  %30 = getelementptr inbounds [1000 x double], [1000 x double]* %4, i64 0, i64 %29
  %31 = load double, double* %30, align 8
  %32 = fadd double %27, %31
  store double %32, double* %6, align 8
  br label %33

33:                                               ; preds = %22
  %34 = load i32, i32* %10, align 4
  %35 = add nsw i32 %34, 1
  store i32 %35, i32* %10, align 4
  br label %18

36:                                               ; preds = %18
  %37 = load double, double* %6, align 8
  %38 = load i32, i32* %3, align 4
  %39 = sitofp i32 %38 to double
  %40 = fdiv double %37, %39
  store double %40, double* %6, align 8
  store double 0.000000e+00, double* %7, align 8
  store i32 1, i32* %10, align 4
  br label %41

41:                                               ; preds = %61, %36
  %42 = load i32, i32* %10, align 4
  %43 = load i32, i32* %3, align 4
  %44 = icmp sle i32 %42, %43
  br i1 %44, label %45, label %64

45:                                               ; preds = %41
  %46 = load double, double* %7, align 8
  %47 = load i32, i32* %10, align 4
  %48 = sext i32 %47 to i64
  %49 = getelementptr inbounds [1000 x double], [1000 x double]* %4, i64 0, i64 %48
  %50 = load double, double* %49, align 8
  %51 = load double, double* %6, align 8
  %52 = fsub double %50, %51
  %53 = load i32, i32* %10, align 4
  %54 = sext i32 %53 to i64
  %55 = getelementptr inbounds [1000 x double], [1000 x double]* %4, i64 0, i64 %54
  %56 = load double, double* %55, align 8
  %57 = load double, double* %6, align 8
  %58 = fsub double %56, %57
  %59 = fmul double %52, %58
  %60 = fadd double %46, %59
  store double %60, double* %7, align 8
  br label %61

61:                                               ; preds = %45
  %62 = load i32, i32* %10, align 4
  %63 = add nsw i32 %62, 1
  store i32 %63, i32* %10, align 4
  br label %41

64:                                               ; preds = %41
  %65 = load double, double* %7, align 8
  %66 = load i32, i32* %3, align 4
  %67 = sitofp i32 %66 to double
  %68 = fdiv double %65, %67
  store double %68, double* %7, align 8
  %69 = load double, double* %7, align 8
  %70 = call double @sqrt(double %69) #3
  store double %70, double* %7, align 8
  %71 = load double, double* %7, align 8
  %72 = load i32, i32* %9, align 4
  %73 = sext i32 %72 to i64
  %74 = getelementptr inbounds [1000 x double], [1000 x double]* %8, i64 0, i64 %73
  store double %71, double* %74, align 8
  br label %75

75:                                               ; preds = %64
  %76 = load i32, i32* %9, align 4
  %77 = add nsw i32 %76, 1
  store i32 %77, i32* %9, align 4
  br label %12

78:                                               ; preds = %12
  store i32 1, i32* %9, align 4
  br label %79

79:                                               ; preds = %89, %78
  %80 = load i32, i32* %9, align 4
  %81 = load i32, i32* %2, align 4
  %82 = icmp sle i32 %80, %81
  br i1 %82, label %83, label %92

83:                                               ; preds = %79
  %84 = load i32, i32* %9, align 4
  %85 = sext i32 %84 to i64
  %86 = getelementptr inbounds [1000 x double], [1000 x double]* %8, i64 0, i64 %85
  %87 = load double, double* %86, align 8
  %88 = call i32 (i8*, ...) @printf(i8* getelementptr inbounds ([7 x i8], [7 x i8]* @.str, i64 0, i64 0), double %87)
  br label %89

89:                                               ; preds = %83
  %90 = load i32, i32* %9, align 4
  %91 = add nsw i32 %90, 1
  store i32 %91, i32* %9, align 4
  br label %79

92:                                               ; preds = %79
  ret i32 0
}

declare dso_local dereferenceable(280) %"class.std::basic_istream"* @_ZNSirsERi(%"class.std::basic_istream"*, i32* dereferenceable(4)) #1

declare dso_local dereferenceable(280) %"class.std::basic_istream"* @_ZNSirsERd(%"class.std::basic_istream"*, double* dereferenceable(8)) #1

; Function Attrs: nounwind
declare dso_local double @sqrt(double) #2

declare dso_local i32 @printf(i8*, ...) #1

; Function Attrs: noinline uwtable
define internal void @_GLOBAL__sub_I_1160.cpp() #0 section ".text.startup" {
  call void @__cxx_global_var_init()
  ret void
}


!llvm.module.flags = !{!0}
!llvm.ident = !{!1}

!0 = !{i32 1, !"wchar_size", i32 4}
!1 = !{!"clang version 10.0.0-4ubuntu1 "}
